; Function Attrs: mustprogress uwtable
define noundef i32 @_ZN12colvarscript15set_result_textISt6vectorIiSaIiEEEEiRKT_Ph(ptr noundef nonnull align 8 dereferenceable(304) %0, ptr noundef nonnull align 8 dereferenceable(24) %1, ptr noundef writeonly %2) local_unnamed_addr #0 align 2 personality ptr @__gxx_personality_v0 {
  %4 = alloca %"class.std::__cxx11::basic_string", align 8
  %5 = alloca %"class.std::allocator", align 1
  call void @_ZNSaIcEC1Ev(ptr noundef nonnull align 1 dereferenceable(1) %5) #17
  %6 = invoke noundef ptr @_ZNSt7__cxx1112basic_stringIcSt11char_traitsIcESaIcEE13_M_local_dataEv(ptr noundef nonnull align 8 dereferenceable(32) %4)
          to label %.noexc unwind label %21

.noexc:                                           ; preds = %3
  invoke void @_ZNSt7__cxx1112basic_stringIcSt11char_traitsIcESaIcEE12_Alloc_hiderC1EPcRKS3_(ptr noundef nonnull align 8 dereferenceable(8) %4, ptr noundef %6, ptr noundef nonnull align 1 dereferenceable(1) %5)
          to label %.noexc6 unwind label %21

.noexc6:                                          ; preds = %.noexc
  invoke void @_ZNSt7__cxx1112basic_stringIcSt11char_traitsIcESaIcEE12_M_constructIPKcEEvT_S8_St20forward_iterator_tag(ptr noundef nonnull align 8 dereferenceable(32) %4, ptr noundef nonnull @.str.8, ptr noundef nonnull @.str.8)
          to label %_ZNSt7__cxx1112basic_stringIcSt11char_traitsIcESaIcEEC2IS3_EEPKcRKS3_.exit unwind label %7

7:                                                ; preds = %.noexc6
  %8 = landingpad { ptr, i32 }
          cleanup
  call void @_ZNSaIcED2Ev(ptr noundef nonnull align 1 dereferenceable(1) %4) #17
  br label %.body

_ZNSt7__cxx1112basic_stringIcSt11char_traitsIcESaIcEEC2IS3_EEPKcRKS3_.exit: ; preds = %.noexc6
  call void @_ZNSaIcED1Ev(ptr noundef nonnull align 1 dereferenceable(1) %5) #17
  %9 = invoke noundef i32 @_ZN12colvarscript25pack_vector_elements_textIiEEiRKSt6vectorIT_SaIS2_EERNSt7__cxx1112basic_stringIcSt11char_traitsIcESaIcEEE(ptr noundef nonnull align 8 dereferenceable(304) %0, ptr noundef nonnull align 8 dereferenceable(24) %1, ptr noundef nonnull align 8 dereferenceable(32) %4)
          to label %10 unwind label %23

10:                                               ; preds = %_ZNSt7__cxx1112basic_stringIcSt11char_traitsIcESaIcEEC2IS3_EEPKcRKS3_.exit
  %.not.i = icmp eq ptr %2, null
  br i1 %.not.i, label %14, label %11

11:                                               ; preds = %10
  %12 = call noundef ptr @_ZNKSt7__cxx1112basic_stringIcSt11char_traitsIcESaIcEE5c_strEv(ptr noundef nonnull align 8 dereferenceable(32) %4) #17
  %13 = call noundef i64 @_ZNKSt7__cxx1112basic_stringIcSt11char_traitsIcESaIcEE4sizeEv(ptr noundef nonnull align 8 dereferenceable(32) %4) #17
  call void @llvm.memcpy.p0.p0.i64(ptr nonnull align 1 %2, ptr align 1 %12, i64 %13, i1 false)
  br label %_ZN12colvarscript24set_result_text_from_strERKNSt7__cxx1112basic_stringIcSt11char_traitsIcESaIcEEEPh.exit

14:                                               ; preds = %10
  %15 = load i32, ptr @_ZN12colvarmodule9errorCodeE, align 4
  %.not.i.i = icmp eq i32 %15, 0
  %16 = getelementptr inbounds i8, ptr %0, i64 16
  br i1 %.not.i.i, label %19, label %17

17:                                               ; preds = %14
  %18 = invoke noundef nonnull align 8 dereferenceable(32) ptr @_ZNSt7__cxx1112basic_stringIcSt11char_traitsIcESaIcEEpLERKS4_(ptr noundef nonnull align 8 dereferenceable(32) %16, ptr noundef nonnull align 8 dereferenceable(32) %4)
          to label %_ZN12colvarscript24set_result_text_from_strERKNSt7__cxx1112basic_stringIcSt11char_traitsIcESaIcEEEPh.exit unwind label %23

19:                                               ; preds = %14
  %20 = invoke noundef nonnull align 8 dereferenceable(32) ptr @_ZNSt7__cxx1112basic_stringIcSt11char_traitsIcESaIcEEaSERKS4_(ptr noundef nonnull align 8 dereferenceable(32) %16, ptr noundef nonnull align 8 dereferenceable(32) %4)
          to label %_ZN12colvarscript24set_result_text_from_strERKNSt7__cxx1112basic_stringIcSt11char_traitsIcESaIcEEEPh.exit unwind label %23

_ZN12colvarscript24set_result_text_from_strERKNSt7__cxx1112basic_stringIcSt11char_traitsIcESaIcEEEPh.exit: ; preds = %11, %17, %19
  call void @_ZNSt7__cxx1112basic_stringIcSt11char_traitsIcESaIcEED1Ev(ptr noundef nonnull align 8 dereferenceable(32) %4) #17
  ret i32 0

21:                                               ; preds = %.noexc, %3
  %22 = landingpad { ptr, i32 }
          cleanup
  br label %.body

.body:                                            ; preds = %7, %21
  %eh.lpad-body = phi { ptr, i32 } [ %22, %21 ], [ %8, %7 ]
  call void @_ZNSaIcED1Ev(ptr noundef nonnull align 1 dereferenceable(1) %5) #17
  br label %25

23:                                               ; preds = %19, %17, %_ZNSt7__cxx1112basic_stringIcSt11char_traitsIcESaIcEEC2IS3_EEPKcRKS3_.exit
  %24 = landingpad { ptr, i32 }
          cleanup
  call void @_ZNSt7__cxx1112basic_stringIcSt11char_traitsIcESaIcEED1Ev(ptr noundef nonnull align 8 dereferenceable(32) %4) #17
  br label %25

25:                                               ; preds = %23, %.body
  %.pn = phi { ptr, i32 } [ %24, %23 ], [ %eh.lpad-body, %.body ]
  resume { ptr, i32 } %.pn
}